target datalayout = "e-m:e-p270:32:32-p271:32:32-p272:64:64-i64:64-i128:128-f80:128-n8:16:32:64-S128"
target triple = "x86_64-pc-linux-gnu"

%struct.FT_StreamRec_ = type { ptr, i64, i64, %union.FT_StreamDesc_, %union.FT_StreamDesc_, ptr, ptr, ptr, ptr, ptr }
%union.FT_StreamDesc_ = type { i64 }

; Function Attrs: nounwind uwtable
define hidden zeroext i16 @FT_Stream_GetUShort(ptr noundef %0) #0 {
  %2 = alloca ptr, align 8
  %3 = alloca ptr, align 8
  %4 = alloca i16, align 2
  store ptr %0, ptr %2, align 8, !tbaa !268
  call void @llvm.lifetime.start.p0(i64 8, ptr %3) #10
  call void @llvm.lifetime.start.p0(i64 2, ptr %4) #10
  br label %5

5:                                                ; preds = %1
  br label %6

6:                                                ; preds = %5
  br label %7

7:                                                ; preds = %6
  store i16 0, ptr %4, align 2, !tbaa !169
  %8 = load ptr, ptr %2, align 8, !tbaa !268
  %9 = getelementptr inbounds nuw %struct.FT_StreamRec_, ptr %8, i32 0, i32 8
  %10 = load ptr, ptr %9, align 8, !tbaa !282
  store ptr %10, ptr %3, align 8, !tbaa !183
  %11 = load ptr, ptr %3, align 8, !tbaa !183
  %12 = getelementptr inbounds i8, ptr %11, i64 1
  %13 = load ptr, ptr %2, align 8, !tbaa !268
  %14 = getelementptr inbounds nuw %struct.FT_StreamRec_, ptr %13, i32 0, i32 9
  %15 = load ptr, ptr %14, align 8, !tbaa !668
  %16 = icmp ult ptr %12, %15
  br i1 %16, label %17, label %36

17:                                               ; preds = %7
  %18 = load ptr, ptr %3, align 8, !tbaa !183
  %19 = getelementptr inbounds i8, ptr %18, i64 2
  store ptr %19, ptr %3, align 8, !tbaa !183
  %20 = load ptr, ptr %3, align 8, !tbaa !183
  %21 = getelementptr inbounds i8, ptr %20, i64 -2
  %22 = getelementptr inbounds i8, ptr %21, i64 0
  %23 = load i8, ptr %22, align 1, !tbaa !64
  %24 = zext i8 %23 to i16
  %25 = zext i16 %24 to i32
  %26 = shl i32 %25, 8
  %27 = load ptr, ptr %3, align 8, !tbaa !183
  %28 = getelementptr inbounds i8, ptr %27, i64 -2
  %29 = getelementptr inbounds i8, ptr %28, i64 1
  %30 = load i8, ptr %29, align 1, !tbaa !64
  %31 = zext i8 %30 to i16
  %32 = zext i16 %31 to i32
  %33 = shl i32 %32, 0
  %34 = or i32 %26, %33
  %35 = trunc i32 %34 to i16
  store i16 %35, ptr %4, align 2, !tbaa !169
  br label %36

36:                                               ; preds = %17, %7
  %37 = load ptr, ptr %3, align 8, !tbaa !183
  %38 = load ptr, ptr %2, align 8, !tbaa !268
  %39 = getelementptr inbounds nuw %struct.FT_StreamRec_, ptr %38, i32 0, i32 8
  store ptr %37, ptr %39, align 8, !tbaa !282
  %40 = load i16, ptr %4, align 2, !tbaa !169
  call void @llvm.lifetime.end.p0(i64 2, ptr %4) #10
  call void @llvm.lifetime.end.p0(i64 8, ptr %3) #10
  ret i16 %40
}