; Function Attrs: mustprogress nofree norecurse nosync nounwind willreturn memory(read, argmem: readwrite, inaccessiblemem: none) uwtable
define hidden zeroext i16 @FT_Stream_GetUShort(ptr noundef captures(none) %0) local_unnamed_addr #12 {
  %2 = getelementptr inbounds nuw i8, ptr %0, i64 64
  %3 = load ptr, ptr %2, align 8, !tbaa !250
  %4 = getelementptr inbounds nuw i8, ptr %3, i64 1
  %5 = getelementptr inbounds nuw i8, ptr %0, i64 72
  %6 = load ptr, ptr %5, align 8, !tbaa !544
  %7 = icmp ult ptr %4, %6
  br i1 %7, label %8, label %16

8:                                                ; preds = %1
  %9 = getelementptr inbounds nuw i8, ptr %3, i64 2
  %10 = load i8, ptr %3, align 1, !tbaa !222
  %11 = zext i8 %10 to i16
  %12 = shl nuw i16 %11, 8
  %13 = load i8, ptr %4, align 1, !tbaa !222
  %14 = zext i8 %13 to i16
  %15 = or disjoint i16 %12, %14
  br label %16

16:                                               ; preds = %8, %1
  %.08 = phi ptr [ %9, %8 ], [ %3, %1 ]
  %.0 = phi i16 [ %15, %8 ], [ 0, %1 ]
  store ptr %.08, ptr %2, align 8, !tbaa !250
  ret i16 %.0
}